target datalayout = "e-m:e-p270:32:32-p271:32:32-p272:64:64-i64:64-i128:128-f80:128-n8:16:32:64-S128"
target triple = "x86_64-pc-linux-gnu"

@proto_register_igrp.ett = internal global [3 x ptr] [ptr @ett_igrp, ptr @ett_igrp_vektor, ptr @ett_igrp_net], align 16
@.str.34 = private unnamed_addr constant [40 x i8] c"Cisco Interior Gateway Routing Protocol\00", align 1
@.str.35 = private unnamed_addr constant [5 x i8] c"IGRP\00", align 1
@.str.36 = private unnamed_addr constant [5 x i8] c"igrp\00", align 1
@proto_igrp = internal global i32 0, align 4
@igrp_handle = internal global ptr null, align 8

; Function Attrs: null_pointer_is_valid sspstrong uwtable
define hidden void @proto_register_igrp() #0 {
  %1 = alloca ptr, align 8
  call void @llvm.lifetime.start.p0(i64 8, ptr %1) #4
  %2 = call i32 @proto_register_protocol(ptr noundef @.str.34, ptr noundef @.str.35, ptr noundef @.str.36)
  store i32 %2, ptr @proto_igrp, align 4
  %3 = load i32, ptr @proto_igrp, align 4
  %4 = call ptr @register_dissector(ptr noundef @.str.36, ptr noundef @dissect_igrp, i32 noundef %3)
  store ptr %4, ptr @igrp_handle, align 8
  %5 = load i32, ptr @proto_igrp, align 4
  call void @proto_register_field_array(i32 noundef %5, ptr noundef @proto_register_igrp.hf, i32 noundef 15)
  call void @proto_register_subtree_array(ptr noundef @proto_register_igrp.ett, i32 noundef 3)
  %6 = load i32, ptr @proto_igrp, align 4
  %7 = call ptr @expert_register_protocol(i32 noundef %6)
  store ptr %7, ptr %1, align 8
  %8 = load ptr, ptr %1, align 8
  call void @expert_register_field_array(ptr noundef %8, ptr noundef @proto_register_igrp.ei, i32 noundef 1)
  call void @llvm.lifetime.end.p0(i64 8, ptr %1) #4
  ret void
}